; Function Attrs: mustprogress uwtable
define dso_local void @_ZN4pbrt15ShutdownLoggingEv() local_unnamed_addr #4 personality ptr @__gxx_personality_v0 {
  %.sroa.0.0.copyload.i = load i64, ptr @_ZN4pbrtL20logUtilizationThreadE, align 8, !tbaa !4
  %.not = icmp eq i64 %.sroa.0.0.copyload.i, 0
  br i1 %.not, label %2, label %1

1:                                                ; preds = %0
  store atomic i8 1, ptr @_ZN4pbrtL22shutdownLogUtilizationE.0 seq_cst, align 1
  tail call void @_ZNSt6thread4joinEv(ptr noundef nonnull align 8 dereferenceable(8) @_ZN4pbrtL20logUtilizationThreadE)
  br label %2

2:                                                ; preds = %1, %0
  ret void
}